; Function Attrs: mustprogress uwtable
define dso_local void @_ZN16VariableSelector25GenerateParameterVariableER8Function(ptr noundef nonnull align 8 dereferenceable(424) %0) local_unnamed_addr #4 align 2 personality ptr @__gxx_personality_v0 {
  %2 = alloca %class.CVQualifiers, align 8
  %3 = alloca ptr, align 8
  %4 = alloca %"class.std::__cxx11::basic_string", align 8
  %5 = tail call noundef zeroext i1 @_Z12rnd_flipcoinjPK6FilterPKNSt7__cxx1112basic_stringIcSt11char_traitsIcESaIcEEE(i32 noundef 40, ptr noundef null, ptr noundef null)
  %6 = load i32, ptr @_ZN5Error8r_error_E, align 4
  %.not = icmp eq i32 %6, 0
  br i1 %.not, label %7, label %28

7:                                                ; preds = %1
  %8 = tail call noundef zeroext i1 @_ZN4Type16has_pointer_typeEv()
  %brmerge.demorgan = and i1 %5, %8
  br i1 %brmerge.demorgan, label %9, label %11

9:                                                ; preds = %7
  %10 = tail call noundef ptr @_ZN4Type26choose_random_pointer_typeEv()
  br label %13

11:                                               ; preds = %7
  %12 = tail call noundef ptr @_ZN4Type33choose_random_nonvoid_nonvolatileEv()
  br label %13

13:                                               ; preds = %11, %9
  %.07 = phi ptr [ %10, %9 ], [ %12, %11 ]
  %14 = load i32, ptr @_ZN5Error8r_error_E, align 4
  %.not8 = icmp eq i32 %14, 0
  br i1 %.not8, label %15, label %28

15:                                               ; preds = %13
  call void @_ZN12CVQualifiers17random_qualifiersEPK4Type(ptr dead_on_unwind nonnull writable sret(%class.CVQualifiers) align 8 %2, ptr noundef %.07)
  %16 = load i32, ptr @_ZN5Error8r_error_E, align 4
  %.not9 = icmp eq i32 %16, 0
  br i1 %.not9, label %19, label %27

17:                                               ; preds = %19, %25
  %18 = landingpad { ptr, i32 }
          cleanup
  br label %29

19:                                               ; preds = %15
  invoke void @_Z6gensymB5cxx11PKc(ptr dead_on_unwind nonnull writable sret(%"class.std::__cxx11::basic_string") align 8 %4, ptr noundef nonnull @.str.6)
          to label %_ZL15RandomParamNameB5cxx11v.exit unwind label %17

_ZL15RandomParamNameB5cxx11v.exit:                ; preds = %19
  %20 = invoke noundef ptr @_ZN16VariableSelector12new_variableERKNSt7__cxx1112basic_stringIcSt11char_traitsIcESaIcEEEPK4TypePK10ExpressionPK12CVQualifiers(ptr noundef nonnull align 8 dereferenceable(32) %4, ptr noundef %.07, ptr noundef null, ptr noundef nonnull %2)
          to label %21 unwind label %23

21:                                               ; preds = %_ZL15RandomParamNameB5cxx11v.exit
  call void @_ZNSt7__cxx1112basic_stringIcSt11char_traitsIcESaIcEED1Ev(ptr noundef nonnull align 8 dereferenceable(32) %4) #19
  store ptr %20, ptr %3, align 8
  %22 = load i32, ptr @_ZN5Error8r_error_E, align 4
  %.not10 = icmp eq i32 %22, 0
  br i1 %.not10, label %25, label %27

23:                                               ; preds = %_ZL15RandomParamNameB5cxx11v.exit
  %24 = landingpad { ptr, i32 }
          cleanup
  call void @_ZNSt7__cxx1112basic_stringIcSt11char_traitsIcESaIcEED1Ev(ptr noundef nonnull align 8 dereferenceable(32) %4) #19
  br label %29

25:                                               ; preds = %21
  %26 = getelementptr inbounds i8, ptr %0, i64 32
  invoke void @_ZNSt6vectorIP8VariableSaIS1_EE9push_backERKS1_(ptr noundef nonnull align 8 dereferenceable(24) %26, ptr noundef nonnull align 8 dereferenceable(8) %3)
          to label %27 unwind label %17

27:                                               ; preds = %25, %21, %15
  call void @_ZN12CVQualifiersD1Ev(ptr noundef nonnull align 8 dereferenceable(96) %2) #19
  br label %28

28:                                               ; preds = %13, %1, %27
  ret void

29:                                               ; preds = %23, %17
  %.pn = phi { ptr, i32 } [ %18, %17 ], [ %24, %23 ]
  call void @_ZN12CVQualifiersD1Ev(ptr noundef nonnull align 8 dereferenceable(96) %2) #19
  resume { ptr, i32 } %.pn
}